; Function Attrs: nounwind uwtable
define internal fastcc range(i32 0, 2) i32 @save_certs(ptr noundef nonnull %0, ptr noundef %1) unnamed_addr #0 {
  %3 = tail call ptr @BIO_new_file(ptr noundef nonnull %0, ptr noundef nonnull @.str.322) #3
  %4 = icmp eq ptr %3, null
  br i1 %4, label %13, label %.preheader

.preheader:                                       ; preds = %2
  %5 = tail call i32 @OPENSSL_sk_num(ptr noundef %1) #3
  %6 = icmp sgt i32 %5, 0
  br i1 %6, label %.lr.ph, label %._crit_edge

.lr.ph:                                           ; preds = %.preheader, %.lr.ph
  %.01013 = phi i32 [ %9, %.lr.ph ], [ 0, %.preheader ]
  %7 = tail call ptr @OPENSSL_sk_value(ptr noundef %1, i32 noundef %.01013) #3
  %8 = tail call i32 @PEM_write_bio_X509(ptr noundef nonnull %3, ptr noundef %7) #3
  %9 = add nuw nsw i32 %.01013, 1
  %10 = tail call i32 @OPENSSL_sk_num(ptr noundef %1) #3
  %11 = icmp slt i32 %9, %10
  br i1 %11, label %.lr.ph, label %._crit_edge, !llvm.loop !37

._crit_edge:                                      ; preds = %.lr.ph, %.preheader
  %12 = tail call i32 @BIO_free(ptr noundef nonnull %3) #3
  br label %13

13:                                               ; preds = %2, %._crit_edge
  %.0 = phi i32 [ 1, %._crit_edge ], [ 0, %2 ]
  ret i32 %.0
}